target datalayout = "e-m:e-p270:32:32-p271:32:32-p272:64:64-i64:64-i128:128-f80:128-n8:16:32:64-S128"
target triple = "x86_64-pc-linux-gnu"

%struct._lv_scale_t = type <{ %struct._lv_obj_t, %struct.lv_ll_t, ptr, i32, i32, i32, i64, i32, i32, i32, i32, i32 }>
%struct._lv_obj_t = type { ptr, ptr, ptr, ptr, ptr, %struct.lv_area_t, i32, i16, i16 }
%struct.lv_area_t = type { i32, i32, i32, i32 }
%struct.lv_ll_t = type { i32, ptr, ptr }
%struct._lv_scale_section_t = type { ptr, ptr, ptr, i32, i32, i32, i32, i32, i32, i32, i32, %struct.lv_point_t, %struct.lv_point_t }
%struct.lv_point_t = type { i32, i32 }

; Function Attrs: nounwind uwtable
define ptr @lv_scale_add_section(ptr noundef %0) #0 {
  %2 = alloca ptr, align 8
  %3 = alloca ptr, align 8
  %4 = alloca ptr, align 8
  %5 = alloca ptr, align 8
  %6 = alloca i32, align 4
  store ptr %0, ptr %3, align 8, !tbaa !3
  br label %7

7:                                                ; preds = %1
  br label %8

8:                                                ; preds = %7
  call void @llvm.lifetime.start.p0(i64 8, ptr %4) #7
  %9 = load ptr, ptr %3, align 8, !tbaa !3
  store ptr %9, ptr %4, align 8, !tbaa !3
  call void @llvm.lifetime.start.p0(i64 8, ptr %5) #7
  %10 = load ptr, ptr %4, align 8, !tbaa !3
  %11 = getelementptr inbounds nuw %struct._lv_scale_t, ptr %10, i32 0, i32 1
  %12 = call ptr @lv_ll_ins_head(ptr noundef %11)
  store ptr %12, ptr %5, align 8, !tbaa !3
  br label %13

13:                                               ; preds = %8
  %14 = load ptr, ptr %5, align 8, !tbaa !3
  %15 = icmp ne ptr %14, null
  br i1 %15, label %22, label %16

16:                                               ; preds = %13
  br label %17

17:                                               ; preds = %16
  br label %18

18:                                               ; preds = %17
  br label %19

19:                                               ; preds = %18
  br label %20

20:                                               ; preds = %21, %19
  br label %21

21:                                               ; preds = %20
  br label %20

22:                                               ; preds = %13
  br label %23

23:                                               ; preds = %22
  br label %24

24:                                               ; preds = %23
  %25 = load ptr, ptr %5, align 8, !tbaa !3
  %26 = icmp eq ptr %25, null
  br i1 %26, label %27, label %28

27:                                               ; preds = %24
  store ptr null, ptr %2, align 8
  store i32 1, ptr %6, align 4
  br label %52

28:                                               ; preds = %24
  %29 = load ptr, ptr %5, align 8, !tbaa !3
  %30 = getelementptr inbounds nuw %struct._lv_scale_section_t, ptr %29, i32 0, i32 0
  store ptr null, ptr %30, align 8, !tbaa !37
  %31 = load ptr, ptr %5, align 8, !tbaa !3
  %32 = getelementptr inbounds nuw %struct._lv_scale_section_t, ptr %31, i32 0, i32 1
  store ptr null, ptr %32, align 8, !tbaa !40
  %33 = load ptr, ptr %5, align 8, !tbaa !3
  %34 = getelementptr inbounds nuw %struct._lv_scale_section_t, ptr %33, i32 0, i32 2
  store ptr null, ptr %34, align 8, !tbaa !41
  %35 = load ptr, ptr %5, align 8, !tbaa !3
  %36 = getelementptr inbounds nuw %struct._lv_scale_section_t, ptr %35, i32 0, i32 3
  store i32 0, ptr %36, align 8, !tbaa !42
  %37 = load ptr, ptr %5, align 8, !tbaa !3
  %38 = getelementptr inbounds nuw %struct._lv_scale_section_t, ptr %37, i32 0, i32 4
  store i32 0, ptr %38, align 4, !tbaa !43
  %39 = load ptr, ptr %5, align 8, !tbaa !3
  %40 = getelementptr inbounds nuw %struct._lv_scale_section_t, ptr %39, i32 0, i32 5
  store i32 255, ptr %40, align 8, !tbaa !44
  %41 = load ptr, ptr %5, align 8, !tbaa !3
  %42 = getelementptr inbounds nuw %struct._lv_scale_section_t, ptr %41, i32 0, i32 6
  store i32 255, ptr %42, align 4, !tbaa !45
  %43 = load ptr, ptr %5, align 8, !tbaa !3
  %44 = getelementptr inbounds nuw %struct._lv_scale_section_t, ptr %43, i32 0, i32 7
  store i32 0, ptr %44, align 8, !tbaa !46
  %45 = load ptr, ptr %5, align 8, !tbaa !3
  %46 = getelementptr inbounds nuw %struct._lv_scale_section_t, ptr %45, i32 0, i32 8
  store i32 0, ptr %46, align 4, !tbaa !47
  %47 = load ptr, ptr %5, align 8, !tbaa !3
  %48 = getelementptr inbounds nuw %struct._lv_scale_section_t, ptr %47, i32 0, i32 9
  store i32 0, ptr %48, align 8, !tbaa !48
  %49 = load ptr, ptr %5, align 8, !tbaa !3
  %50 = getelementptr inbounds nuw %struct._lv_scale_section_t, ptr %49, i32 0, i32 10
  store i32 0, ptr %50, align 4, !tbaa !49
  %51 = load ptr, ptr %5, align 8, !tbaa !3
  store ptr %51, ptr %2, align 8
  store i32 1, ptr %6, align 4
  br label %52

52:                                               ; preds = %28, %27
  call void @llvm.lifetime.end.p0(i64 8, ptr %5) #7
  call void @llvm.lifetime.end.p0(i64 8, ptr %4) #7
  %53 = load ptr, ptr %2, align 8
  ret ptr %53
}