; Function Attrs: nounwind uwtable
define nonnull ptr @lv_scale_add_section(ptr noundef %0) local_unnamed_addr #0 {
  %2 = getelementptr inbounds nuw i8, ptr %0, i64 64
  %3 = tail call ptr @lv_ll_ins_head(ptr noundef nonnull %2) #9
  %.not = icmp eq ptr %3, null
  br i1 %.not, label %.preheader, label %4

.preheader:                                       ; preds = %1, %.preheader
  br label %.preheader

4:                                                ; preds = %1
  %5 = getelementptr inbounds nuw i8, ptr %3, i64 32
  tail call void @llvm.memset.p0.i64(ptr noundef nonnull align 8 dereferenceable(32) %3, i8 0, i64 32, i1 false)
  store i32 255, ptr %5, align 8, !tbaa !30
  %6 = getelementptr inbounds nuw i8, ptr %3, i64 36
  store i32 255, ptr %6, align 4, !tbaa !33
  %7 = getelementptr inbounds nuw i8, ptr %3, i64 40
  tail call void @llvm.memset.p0.i64(ptr noundef nonnull align 8 dereferenceable(16) %7, i8 0, i64 16, i1 false)
  ret ptr %3
}